; Function Attrs: inlinehint mustprogress nofree norecurse nosync nounwind sspstrong willreturn memory(read, inaccessiblemem: none) uwtable
define internal fastcc i64 @rb_class_of(i64 noundef %0) unnamed_addr #5 {
  %2 = icmp eq i64 %0, 0
  %3 = and i64 %0, 7
  %4 = icmp ne i64 %3, 0
  %5 = or i1 %2, %4
  br i1 %5, label %9, label %6

6:                                                ; preds = %1
  %7 = inttoptr i64 %0 to ptr
  %8 = getelementptr inbounds nuw i8, ptr %7, i64 8
  br label %17

9:                                                ; preds = %1
  switch i64 %0, label %12 [
    i64 0, label %17
    i64 4, label %10
    i64 20, label %11
  ]

10:                                               ; preds = %9
  br label %17

11:                                               ; preds = %9
  br label %17

12:                                               ; preds = %9
  %13 = and i64 %0, 1
  %.not = icmp eq i64 %13, 0
  br i1 %.not, label %14, label %17

14:                                               ; preds = %12
  %15 = and i64 %0, 254
  %16 = icmp eq i64 %15, 12
  %spec.select = select i1 %16, ptr @rb_cSymbol, ptr @rb_cFloat
  br label %17

17:                                               ; preds = %14, %12, %9, %11, %10, %6
  %.0.in = phi ptr [ @rb_cNilClass, %10 ], [ @rb_cTrueClass, %11 ], [ %8, %6 ], [ @rb_cFalseClass, %9 ], [ @rb_cInteger, %12 ], [ %spec.select, %14 ]
  %.0 = load i64, ptr %.0.in, align 8, !tbaa !7
  ret i64 %.0
}